	.file	"mulmatrix.c"
# GNU C11 (Ubuntu 7.4.0-1ubuntu1~18.04.1) version 7.4.0 (x86_64-linux-gnu)
#	compiled by GNU C version 7.4.0, GMP version 6.1.2, MPFR version 4.0.1, MPC version 1.1.0, isl version isl-0.19-GMP

# GGC heuristics: --param ggc-min-expand=100 --param ggc-min-heapsize=131072
# options passed:  -imultiarch x86_64-linux-gnu mulmatrix.c -mavx -mfma
# -mtune=generic -march=x86-64 -auxbase-strip mulmatrix.S -g -O3
# -fverbose-asm -fstack-protector-strong -Wformat -Wformat-security
# options enabled:  -fPIC -fPIE -faggressive-loop-optimizations
# -falign-labels -fasynchronous-unwind-tables -fauto-inc-dec
# -fbranch-count-reg -fcaller-saves -fchkp-check-incomplete-type
# -fchkp-check-read -fchkp-check-write -fchkp-instrument-calls
# -fchkp-narrow-bounds -fchkp-optimize -fchkp-store-bounds
# -fchkp-use-static-bounds -fchkp-use-static-const-bounds
# -fchkp-use-wrappers -fcode-hoisting -fcombine-stack-adjustments -fcommon
# -fcompare-elim -fcprop-registers -fcrossjumping -fcse-follow-jumps
# -fdefer-pop -fdelete-null-pointer-checks -fdevirtualize
# -fdevirtualize-speculatively -fdwarf2-cfi-asm -fearly-inlining
# -feliminate-unused-debug-types -fexpensive-optimizations
# -fforward-propagate -ffp-int-builtin-inexact -ffunction-cse -fgcse
# -fgcse-after-reload -fgcse-lm -fgnu-runtime -fgnu-unique
# -fguess-branch-probability -fhoist-adjacent-loads -fident -fif-conversion
# -fif-conversion2 -findirect-inlining -finline -finline-atomics
# -finline-functions -finline-functions-called-once
# -finline-small-functions -fipa-bit-cp -fipa-cp -fipa-cp-clone -fipa-icf
# -fipa-icf-functions -fipa-icf-variables -fipa-profile -fipa-pure-const
# -fipa-ra -fipa-reference -fipa-sra -fipa-vrp -fira-hoist-pressure
# -fira-share-save-slots -fira-share-spill-slots
# -fisolate-erroneous-paths-dereference -fivopts -fkeep-static-consts
# -fleading-underscore -flifetime-dse -flra-remat -flto-odr-type-merging
# -fmath-errno -fmerge-constants -fmerge-debug-strings
# -fmove-loop-invariants -fomit-frame-pointer -foptimize-sibling-calls
# -foptimize-strlen -fpartial-inlining -fpeel-loops -fpeephole -fpeephole2
# -fplt -fpredictive-commoning -fprefetch-loop-arrays -free
# -freg-struct-return -freorder-blocks -freorder-functions
# -frerun-cse-after-loop -fsched-critical-path-heuristic
# -fsched-dep-count-heuristic -fsched-group-heuristic -fsched-interblock
# -fsched-last-insn-heuristic -fsched-rank-heuristic -fsched-spec
# -fsched-spec-insn-heuristic -fsched-stalled-insns-dep -fschedule-fusion
# -fschedule-insns2 -fsemantic-interposition -fshow-column -fshrink-wrap
# -fshrink-wrap-separate -fsigned-zeros -fsplit-ivs-in-unroller
# -fsplit-loops -fsplit-paths -fsplit-wide-types -fssa-backprop
# -fssa-phiopt -fstack-protector-strong -fstdarg-opt -fstore-merging
# -fstrict-aliasing -fstrict-overflow -fstrict-volatile-bitfields
# -fsync-libcalls -fthread-jumps -ftoplevel-reorder -ftrapping-math
# -ftree-bit-ccp -ftree-builtin-call-dce -ftree-ccp -ftree-ch
# -ftree-coalesce-vars -ftree-copy-prop -ftree-cselim -ftree-dce
# -ftree-dominator-opts -ftree-dse -ftree-forwprop -ftree-fre
# -ftree-loop-distribute-patterns -ftree-loop-if-convert -ftree-loop-im
# -ftree-loop-ivcanon -ftree-loop-optimize -ftree-loop-vectorize
# -ftree-parallelize-loops= -ftree-partial-pre -ftree-phiprop -ftree-pre
# -ftree-pta -ftree-reassoc -ftree-scev-cprop -ftree-sink
# -ftree-slp-vectorize -ftree-slsr -ftree-sra -ftree-switch-conversion
# -ftree-tail-merge -ftree-ter -ftree-vrp -funit-at-a-time -funswitch-loops
# -funwind-tables -fvar-tracking -fvar-tracking-assignments -fverbose-asm
# -fzero-initialized-in-bss -m128bit-long-double -m64 -m80387
# -malign-stringops -mavx -mavx256-split-unaligned-load
# -mavx256-split-unaligned-store -mfancy-math-387 -mfma -mfp-ret-in-387
# -mfxsr -mglibc -mieee-fp -mlong-double-80 -mmmx -mpopcnt -mpush-args
# -mred-zone -msse -msse2 -msse3 -msse4 -msse4.1 -msse4.2 -mssse3 -mstv
# -mtls-direct-seg-refs -mvzeroupper -mxsave

	.text
.Ltext0:
	.p2align 4,,15
	.type	_mm_malloc.constprop.0, @function
_mm_malloc.constprop.0:
.LFB4796:
	.file 1 "/usr/lib/gcc/x86_64-linux-gnu/7/include/mm_malloc.h"
	.loc 1 38 0
	.cfi_startproc
	subq	$24, %rsp	#,
	.cfi_def_cfa_offset 32
# /usr/lib/gcc/x86_64-linux-gnu/7/include/mm_malloc.h:45:   if (posix_memalign (&__ptr, __alignment, __size) == 0)
	.loc 1 45 0
	movl	$8388608, %edx	#,
	movl	$32, %esi	#,
	movq	%rsp, %rdi	#, tmp89
# /usr/lib/gcc/x86_64-linux-gnu/7/include/mm_malloc.h:38: _mm_malloc (size_t __size, size_t __alignment)
	.loc 1 38 0
	movq	%fs:40, %rax	#, tmp101
	movq	%rax, 8(%rsp)	# tmp101, D.29173
	xorl	%eax, %eax	# tmp101
.LVL0:
# /usr/lib/gcc/x86_64-linux-gnu/7/include/mm_malloc.h:45:   if (posix_memalign (&__ptr, __alignment, __size) == 0)
	.loc 1 45 0
	call	posix_memalign@PLT	#
.LVL1:
	testl	%eax, %eax	# _6
	movq	(%rsp), %rdx	# D.29166, <retval>
	je	.L1	#,
	xorl	%edx, %edx	# <retval>
.L1:
# /usr/lib/gcc/x86_64-linux-gnu/7/include/mm_malloc.h:49: }
	.loc 1 49 0
	movq	8(%rsp), %rcx	# D.29173, tmp102
	xorq	%fs:40, %rcx	#, tmp102
	movq	%rdx, %rax	# <retval>,
	jne	.L9	#,
	addq	$24, %rsp	#,
	.cfi_remember_state
	.cfi_def_cfa_offset 8
	ret
.L9:
	.cfi_restore_state
	call	__stack_chk_fail@PLT	#
.LVL2:
	.cfi_endproc
.LFE4796:
	.size	_mm_malloc.constprop.0, .-_mm_malloc.constprop.0
	.p2align 4,,15
	.globl	mulmat
	.type	mulmat, @function
mulmat:
.LFB4792:
	.file 2 "mulmatrix.c"
	.loc 2 22 0
	.cfi_startproc
.LVL3:
.LBB59:
.LBB60:
.LBB61:
# mulmatrix.c:30:                 C1[i*CC+j] += A[i*AC+k]*B[k*BR+j];
	.loc 2 30 0
	movq	B(%rip), %rax	# B, B.3_14
	movq	A(%rip), %rdi	# A, ivtmp.61
	movq	C1(%rip), %r9	# C1, ivtmp.62
	leaq	8388608(%rdi), %r11	#, _87
	leaq	8388608(%rax), %r10	#, ivtmp.53
	leaq	8396800(%rax), %r8	#, _71
.LVL4:
.L11:
	movq	%r10, %rsi	# ivtmp.53, ivtmp.53
.LBE61:
.LBE60:
.LBE59:
# mulmatrix.c:22: void mulmat(void){     //обычное математическое перемножение матриц
	.loc 2 22 0
	movq	%r9, %rcx	# ivtmp.62, ivtmp.51
.LVL5:
	.p2align 4,,10
	.p2align 3
.L13:
.LBB64:
.LBB63:
# mulmatrix.c:27:             C1[i*CC+j] = 0;
	.loc 2 27 0
	vxorpd	%xmm0, %xmm0, %xmm0	# _22
	leaq	-8388608(%rsi), %rax	#, ivtmp.43
	movq	$0x000000000, (%rcx)	#, MEM[base: _74, offset: 0B]
.LVL6:
	movq	%rdi, %rdx	# ivtmp.61, ivtmp.42
.LVL7:
	.p2align 4,,10
	.p2align 3
.L12:
.LBB62:
# mulmatrix.c:30:                 C1[i*CC+j] += A[i*AC+k]*B[k*BR+j];
	.loc 2 30 0 discriminator 3
	vmovsd	(%rdx), %xmm2	# MEM[base: _41, offset: 0B], tmp142
	addq	$8192, %rax	#, ivtmp.43
	addq	$8, %rdx	#, ivtmp.42
	vfmadd231sd	-8192(%rax), %xmm2, %xmm0	# MEM[base: _40, offset: 0B], tmp142, _22
# mulmatrix.c:28:             for (int k = 0; k < AC; k++)
	.loc 2 28 0 discriminator 3
	cmpq	%rsi, %rax	# ivtmp.53, ivtmp.43
# mulmatrix.c:30:                 C1[i*CC+j] += A[i*AC+k]*B[k*BR+j];
	.loc 2 30 0 discriminator 3
	vmovsd	%xmm0, (%rcx)	# _22, MEM[base: _74, offset: 0B]
# mulmatrix.c:28:             for (int k = 0; k < AC; k++)
	.loc 2 28 0 discriminator 3
	jne	.L12	#,
	leaq	8(%rax), %rsi	#, ivtmp.53
	addq	$8, %rcx	#, ivtmp.51
.LBE62:
# mulmatrix.c:25:         for (int j = 0; j < BC; j++)
	.loc 2 25 0 discriminator 2
	cmpq	%rsi, %r8	# ivtmp.53, _71
	jne	.L13	#,
	addq	$8192, %rdi	#, ivtmp.61
	addq	$8192, %r9	#, ivtmp.62
.LBE63:
# mulmatrix.c:23:     for (int i = 0; i < AR; i++)
	.loc 2 23 0 discriminator 2
	cmpq	%r11, %rdi	# _87, ivtmp.61
	jne	.L11	#,
.LBE64:
# mulmatrix.c:34: }
	.loc 2 34 0
	rep ret
	.cfi_endproc
.LFE4792:
	.size	mulmat, .-mulmat
	.p2align 4,,15
	.globl	mulstr
	.type	mulstr, @function
mulstr:
.LFB4793:
	.loc 2 36 0
	.cfi_startproc
.LVL8:
	leaq	8(%rsp), %r10	#,
	.cfi_def_cfa 10, 0
	andq	$-32, %rsp	#,
	pushq	-8(%r10)	#
	pushq	%rbp	#
	.cfi_escape 0x10,0x6,0x2,0x76,0
	movq	%rsp, %rbp	#,
	pushq	%r15	#
	pushq	%r14	#
	pushq	%r13	#
	pushq	%r12	#
	pushq	%r10	#
	.cfi_escape 0xf,0x3,0x76,0x58,0x6
	.cfi_escape 0x10,0xf,0x2,0x76,0x78
	.cfi_escape 0x10,0xe,0x2,0x76,0x70
	.cfi_escape 0x10,0xd,0x2,0x76,0x68
	.cfi_escape 0x10,0xc,0x2,0x76,0x60
	pushq	%rbx	#
	.cfi_escape 0x10,0x3,0x2,0x76,0x50
.LBB65:
.LBB66:
# mulmatrix.c:38:         double* c = C2 + i*CC; //указатель на 1 элемент i-ой строки С
	.loc 2 38 0
	movq	C2(%rip), %rax	# C2, C2.5_1
.LBB67:
.LBB68:
# mulmatrix.c:45:             double a = A[i*AC + k];//значение k-го элемента в i-ой строке  А
	.loc 2 45 0
	movq	A(%rip), %rbx	# A, A.7_12
# mulmatrix.c:44:             const double* b = B + k*BC;//указатель на 1 элемент строки В
	.loc 2 44 0
	movq	B(%rip), %r15	# B, B.6_8
# mulmatrix.c:45:             double a = A[i*AC + k];//значение k-го элемента в i-ой строке  А
	.loc 2 45 0
	movq	$0, -96(%rbp)	#, %sfp
	movq	$0, -88(%rbp)	#, %sfp
.LBE68:
.LBE67:
# mulmatrix.c:38:         double* c = C2 + i*CC; //указатель на 1 элемент i-ой строки С
	.loc 2 38 0
	movq	%rax, -104(%rbp)	# C2.5_1, %sfp
.LBB76:
.LBB73:
# mulmatrix.c:45:             double a = A[i*AC + k];//значение k-го элемента в i-ой строке  А
	.loc 2 45 0
	movq	%rbx, -112(%rbp)	# A.7_12, %sfp
	movq	%rax, %r13	# C2.5_1, ivtmp.119
	leaq	32(%rax), %rbx	#, ivtmp.121
	addq	$8388608, %rax	#, _228
	movq	%rax, -120(%rbp)	# _228, %sfp
	leaq	8388608(%r15), %rax	#, _178
	movq	%rbx, -80(%rbp)	# ivtmp.121, %sfp
	movq	%rax, -56(%rbp)	# _178, %sfp
.LVL9:
.L27:
	leaq	8(%r13), %rdi	#, tmp218
	movq	%r13, %rcx	# ivtmp.119, c
	xorl	%eax, %eax	# tmp315
	movq	$0, 0(%r13)	#,* ivtmp.119
	movq	$0, 8184(%r13)	#,
	movl	$1024, %ebx	#, niters.69
	andq	$-8, %rdi	#, tmp218
	movq	%r15, %rsi	# B.6_8, ivtmp.110
.LBE73:
.LBE76:
# mulmatrix.c:38:         double* c = C2 + i*CC; //указатель на 1 элемент i-ой строки С
	.loc 2 38 0
	xorl	%r11d, %r11d	# ivtmp.112
	subq	%rdi, %rcx	# tmp218, c
	addl	$8192, %ecx	#, tmp213
	shrl	$3, %ecx	#,
	rep stosq
	movq	%r13, %rax	# ivtmp.119, tmp221
	shrq	$3, %rax	#, tmp221
	negq	%rax	# tmp222
	movq	-96(%rbp), %rcx	# %sfp, ivtmp.123
	movq	-104(%rbp), %r14	# %sfp, C2.5_1
	movl	%eax, %edi	# tmp222, prolog_loop_niters.67
	movq	-112(%rbp), %r12	# %sfp, ivtmp.109
	andl	$3, %edi	#, prolog_loop_niters.67
	subl	%edi, %ebx	# prolog_loop_niters.67, niters.69
	movl	%edi, %eax	# prolog_loop_niters.67, prolog_loop_adjusted_niters.68
	movl	%edi, -60(%rbp)	# prolog_loop_niters.67, %sfp
	movq	-88(%rbp), %rdi	# %sfp, ivtmp.122
	movl	%ebx, %r9d	# niters.69, bnd.70
	movl	%ebx, -64(%rbp)	# niters.69, %sfp
	andl	$-4, %ebx	#, niters_vector_mult_vf.71
	addq	%rcx, %r12	# ivtmp.123, ivtmp.109
	shrl	$2, %r9d	#, bnd.70
	leaq	(%rax,%rdi), %rdx	#, tmp224
	leaq	0(,%rax,8), %rdi	#, _149
	movq	%rdi, -72(%rbp)	# _149, %sfp
	addq	%rcx, %rdi	# ivtmp.123, tmp226
	leaq	(%r14,%rdx,8), %r8	#, vectp.75
	addq	%r14, %rdi	# C2.5_1, vectp.83
	movl	%ebx, %r14d	# niters_vector_mult_vf.71, niters_vector_mult_vf.71
	.p2align 4,,10
	.p2align 3
.L26:
.LVL10:
	leaq	32(%rsi), %rax	#, tmp227
.LBB77:
.LBB74:
# mulmatrix.c:45:             double a = A[i*AC + k];//значение k-го элемента в i-ой строке  А
	.loc 2 45 0
	vmovsd	(%r12), %xmm1	# MEM[base: _192, offset: 0B], a
.LVL11:
	cmpq	%rax, %r13	# tmp227, ivtmp.119
	jnb	.L32	#,
	cmpq	-80(%rbp), %rsi	# %sfp, ivtmp.110
	jb	.L28	#,
.L32:
	movl	-60(%rbp), %eax	# %sfp, prolog_loop_niters.67
	testl	%eax, %eax	# prolog_loop_niters.67
	je	.L29	#,
.LBB69:
# mulmatrix.c:48:             c[j] += a * b[j];//формируем полусуммы
	.loc 2 48 0
	vmovsd	(%rsi), %xmm0	# MEM[base: _183, offset: 0B], tmp232
	cmpl	$1, %eax	#, prolog_loop_niters.67
	vfmadd213sd	0(%r13), %xmm1, %xmm0	# MEM[base: c_35, offset: 0B], a, tmp232
	vmovsd	%xmm0, 0(%r13)	# tmp232, MEM[base: c_35, offset: 0B]
.LVL12:
	je	.L30	#,
	vmovsd	8(%rsi), %xmm0	# MEM[base: _183, offset: 8B], tmp233
	cmpl	$3, %eax	#, prolog_loop_niters.67
	vfmadd213sd	8(%r13), %xmm1, %xmm0	# MEM[base: c_35, offset: 8B], a, tmp233
	vmovsd	%xmm0, 8(%r13)	# tmp233, MEM[base: c_35, offset: 8B]
.LVL13:
	jne	.L31	#,
	vmovsd	16(%rsi), %xmm0	# MEM[base: _183, offset: 16B], tmp234
	movl	$1021, %ebx	#, ivtmp_80
# mulmatrix.c:47:             for (int j = 0; j < CC; j++){//идём по строке С
	.loc 2 47 0
	movl	$3, %r10d	#, j
# mulmatrix.c:48:             c[j] += a * b[j];//формируем полусуммы
	.loc 2 48 0
	vfmadd213sd	16(%r13), %xmm1, %xmm0	# MEM[base: c_35, offset: 16B], a, tmp234
	vmovsd	%xmm0, 16(%r13)	# tmp234, MEM[base: c_35, offset: 16B]
.LVL14:
.L21:
	movq	-72(%rbp), %rax	# %sfp, _149
	vmovddup	%xmm1, %xmm2	# a, vect_cst__154
# mulmatrix.c:47:             for (int j = 0; j < CC; j++){//идём по строке С
	.loc 2 47 0
	xorl	%edx, %edx	# ivtmp.93
	leaq	(%rax,%r11), %rcx	#, tmp235
	vinsertf128	$1, %xmm2, %ymm2, %ymm2	# vect_cst__154, vect_cst__154
	xorl	%eax, %eax	# ivtmp.96
	addq	%r15, %rcx	# B.6_8, vectp.78
	.p2align 4,,10
	.p2align 3
.L23:
# mulmatrix.c:48:             c[j] += a * b[j];//формируем полусуммы
	.loc 2 48 0 discriminator 3
	vmovupd	(%rcx,%rax), %xmm0	# MEM[base: vectp.78_148, index: ivtmp.96_111, offset: 0B], MEM[base: vectp.78_148, index: ivtmp.96_111, offset: 0B]
	addl	$1, %edx	#, ivtmp.93
	vinsertf128	$0x1, 16(%rcx,%rax), %ymm0, %ymm0	# MEM[base: vectp.78_148, index: ivtmp.96_111, offset: 0B], MEM[base: vectp.78_148, index: ivtmp.96_111, offset: 0B], vect__22.79
	vfmadd213pd	(%r8,%rax), %ymm2, %ymm0	# MEM[base: vectp.75_140, index: ivtmp.96_111, offset: 0B], vect_cst__154, vect__24.81
	vmovapd	%ymm0, (%rdi,%rax)	# vect__24.81, MEM[base: vectp.83_157, index: ivtmp.96_111, offset: 0B]
	addq	$32, %rax	#, ivtmp.96
	cmpl	%r9d, %edx	# bnd.70, ivtmp.93
	jb	.L23	#,
	addl	%r14d, %r10d	# niters_vector_mult_vf.71, tmp.72
	subl	%r14d, %ebx	# niters_vector_mult_vf.71, tmp.73
	cmpl	%r14d, -64(%rbp)	# niters_vector_mult_vf.71, %sfp
	je	.L25	#,
.LVL15:
# mulmatrix.c:48:             c[j] += a * b[j];//формируем полусуммы
	.loc 2 48 0 is_stmt 0
	movslq	%r10d, %rax	# tmp.72, tmp.72
	salq	$3, %rax	#, _17
	leaq	0(%r13,%rax), %rdx	#, _18
	addq	%r15, %rax	# B.6_8, tmp241
# mulmatrix.c:47:             for (int j = 0; j < CC; j++){//идём по строке С
	.loc 2 47 0 is_stmt 1
	cmpl	$1, %ebx	#, tmp.73
# mulmatrix.c:48:             c[j] += a * b[j];//формируем полусуммы
	.loc 2 48 0
	vmovsd	(%rax,%r11), %xmm0	# *_33, tmp243
# mulmatrix.c:47:             for (int j = 0; j < CC; j++){//идём по строке С
	.loc 2 47 0
	leal	1(%r10), %eax	#, j
.LVL16:
# mulmatrix.c:48:             c[j] += a * b[j];//формируем полусуммы
	.loc 2 48 0
	vfmadd213sd	(%rdx), %xmm1, %xmm0	# *_18, a, tmp243
	vmovsd	%xmm0, (%rdx)	# tmp243, *_18
# mulmatrix.c:47:             for (int j = 0; j < CC; j++){//идём по строке С
	.loc 2 47 0
	je	.L25	#,
# mulmatrix.c:48:             c[j] += a * b[j];//формируем полусуммы
	.loc 2 48 0
	cltq
# mulmatrix.c:47:             for (int j = 0; j < CC; j++){//идём по строке С
	.loc 2 47 0
	addl	$2, %r10d	#, j
# mulmatrix.c:48:             c[j] += a * b[j];//формируем полусуммы
	.loc 2 48 0
	salq	$3, %rax	#, _167
.LVL17:
	leaq	0(%r13,%rax), %rdx	#, _168
	addq	%r15, %rax	# B.6_8, tmp246
# mulmatrix.c:47:             for (int j = 0; j < CC; j++){//идём по строке С
	.loc 2 47 0
	cmpl	$2, %ebx	#, tmp.73
# mulmatrix.c:48:             c[j] += a * b[j];//формируем полусуммы
	.loc 2 48 0
	vmovsd	(%rax,%r11), %xmm0	# *_171, tmp248
	vfmadd213sd	(%rdx), %xmm1, %xmm0	# *_168, a, tmp248
	vmovsd	%xmm0, (%rdx)	# tmp248, *_168
.LVL18:
# mulmatrix.c:47:             for (int j = 0; j < CC; j++){//идём по строке С
	.loc 2 47 0
	je	.L25	#,
# mulmatrix.c:48:             c[j] += a * b[j];//формируем полусуммы
	.loc 2 48 0
	movslq	%r10d, %r10	# j, j
	leaq	0(,%r10,8), %rax	#, _122
	leaq	0(%r13,%rax), %rdx	#, _123
	addq	%r15, %rax	# B.6_8, tmp250
	vmovsd	(%rdx), %xmm3	# *_123, tmp342
	vfmadd132sd	(%rax,%r11), %xmm3, %xmm1	# *_126, tmp342, tmp252
.LVL19:
	vmovsd	%xmm1, (%rdx)	# tmp252, *_123
.L25:
.LVL20:
	addq	$8, %r12	#, ivtmp.109
	addq	$8192, %rsi	#, ivtmp.110
	addq	$8192, %r11	#, ivtmp.112
.LVL21:
.LBE69:
.LBE74:
# mulmatrix.c:43:         for (int k = 0; k < AC; k++){//AC=BR, идём по столбцам B и элементам в строке А, k = номер столбца А/номер строки В
	.loc 2 43 0 discriminator 2
	cmpq	%rsi, -56(%rbp)	# ivtmp.110, %sfp
	jne	.L26	#,
	addq	$8192, %r13	#, ivtmp.119
.LVL22:
	addq	$8192, -80(%rbp)	#, %sfp
	addq	$1024, -88(%rbp)	#, %sfp
	addq	$8192, -96(%rbp)	#, %sfp
.LBE77:
.LBE66:
# mulmatrix.c:37:     for (int i = 0; i < AR; i++){//идём по строкам А и С, i = номер строки в А
	.loc 2 37 0 discriminator 2
	cmpq	-120(%rbp), %r13	# %sfp, ivtmp.119
	jne	.L27	#,
	vzeroupper
.LBE65:
# mulmatrix.c:53: }
	.loc 2 53 0
	popq	%rbx	#
	popq	%r10	#
	.cfi_remember_state
	.cfi_def_cfa 10, 0
	popq	%r12	#
	popq	%r13	#
.LVL23:
	popq	%r14	#
	popq	%r15	#
	popq	%rbp	#
	leaq	-8(%r10), %rsp	#,
	.cfi_def_cfa 7, 8
	ret
.LVL24:
	.p2align 4,,10
	.p2align 3
.L30:
	.cfi_restore_state
.LBB80:
.LBB79:
.LBB78:
.LBB75:
.LBB70:
# mulmatrix.c:48:             c[j] += a * b[j];//формируем полусуммы
	.loc 2 48 0
	movl	$1023, %ebx	#, ivtmp_80
# mulmatrix.c:47:             for (int j = 0; j < CC; j++){//идём по строке С
	.loc 2 47 0
	movl	$1, %r10d	#, j
	jmp	.L21	#
.LVL25:
.L29:
.LBE70:
# mulmatrix.c:45:             double a = A[i*AC + k];//значение k-го элемента в i-ой строке  А
	.loc 2 45 0
	movl	$1024, %ebx	#, ivtmp_80
.LBB71:
# mulmatrix.c:47:             for (int j = 0; j < CC; j++){//идём по строке С
	.loc 2 47 0
	xorl	%r10d, %r10d	# j
	jmp	.L21	#
.L28:
.LBE71:
# mulmatrix.c:45:             double a = A[i*AC + k];//значение k-го элемента в i-ой строке  А
	.loc 2 45 0
	xorl	%eax, %eax	# ivtmp.92
.LVL26:
	.p2align 4,,10
	.p2align 3
.L19:
.LBB72:
# mulmatrix.c:48:             c[j] += a * b[j];//формируем полусуммы
	.loc 2 48 0
	vmovsd	(%rsi,%rax), %xmm0	# MEM[base: _183, index: ivtmp.92_112, offset: 0B], tmp253
	vfmadd213sd	0(%r13,%rax), %xmm1, %xmm0	# MEM[base: c_35, index: ivtmp.92_112, offset: 0B], a, tmp253
	vmovsd	%xmm0, 0(%r13,%rax)	# tmp253, MEM[base: c_35, index: ivtmp.92_112, offset: 0B]
	addq	$8, %rax	#, ivtmp.92
# mulmatrix.c:47:             for (int j = 0; j < CC; j++){//идём по строке С
	.loc 2 47 0
	cmpq	$8192, %rax	#, ivtmp.92
	jne	.L19	#,
	jmp	.L25	#
.LVL27:
.L31:
# mulmatrix.c:48:             c[j] += a * b[j];//формируем полусуммы
	.loc 2 48 0
	movl	$1022, %ebx	#, ivtmp_80
# mulmatrix.c:47:             for (int j = 0; j < CC; j++){//идём по строке С
	.loc 2 47 0
	movl	$2, %r10d	#, j
	jmp	.L21	#
.LBE72:
.LBE75:
.LBE78:
.LBE79:
.LBE80:
	.cfi_endproc
.LFE4793:
	.size	mulstr, .-mulstr
	.p2align 4,,15
	.globl	mulvec
	.type	mulvec, @function
mulvec:
.LFB4794:
	.loc 2 55 0
	.cfi_startproc
.LVL28:
	leaq	8(%rsp), %r10	#,
	.cfi_def_cfa 10, 0
	andq	$-32, %rsp	#,
.LBB81:
.LBB82:
# /usr/include/x86_64-linux-gnu/bits/string_fortified.h:71:   return __builtin___memset_chk (__dest, __ch, __len, __bos0 (__dest));
	.file 3 "/usr/include/x86_64-linux-gnu/bits/string_fortified.h"
	.loc 3 71 0
	movl	$8388608, %edx	#,
	xorl	%esi, %esi	#
.LBE82:
.LBE81:
# mulmatrix.c:55: void mulvec(void){      //векторная оптимизация
	.loc 2 55 0
	pushq	-8(%r10)	#
	pushq	%rbp	#
	.cfi_escape 0x10,0x6,0x2,0x76,0
	movq	%rsp, %rbp	#,
	pushq	%r10	#
	.cfi_escape 0xf,0x3,0x76,0x78,0x6
	subq	$8, %rsp	#,
.LBB84:
.LBB83:
# /usr/include/x86_64-linux-gnu/bits/string_fortified.h:71:   return __builtin___memset_chk (__dest, __ch, __len, __bos0 (__dest));
	.loc 3 71 0
	movq	C3(%rip), %rdi	# C3,
	call	memset@PLT	#
.LVL29:
	xorl	%r9d, %r9d	# ivtmp.156
.LVL30:
.L47:
.LBE83:
.LBE84:
.LBB85:
.LBB86:
# mulmatrix.c:59:         double* ap = A + i*AC;
	.loc 2 59 0
	movq	A(%rip), %rsi	# A, ap
# mulmatrix.c:58:         double* c = C3 + i*CC; //указатель на 1 элемент i-ой строки С
	.loc 2 58 0
	movq	C3(%rip), %r8	# C3, c
# mulmatrix.c:60:         const double* b = B;//указатель на 1 элемент матрицы В
	.loc 2 60 0
	movq	B(%rip), %rdx	# B, b
# mulmatrix.c:59:         double* ap = A + i*AC;
	.loc 2 59 0
	addq	%r9, %rsi	# ivtmp.156, ap
# mulmatrix.c:58:         double* c = C3 + i*CC; //указатель на 1 элемент i-ой строки С
	.loc 2 58 0
	addq	%r9, %r8	# ivtmp.156, c
.LVL31:
	leaq	8192(%rsi), %rdi	#, _13
.LVL32:
	.p2align 4,,10
	.p2align 3
.L46:
.LBB87:
.LBB88:
.LBB89:
.LBB90:
# /usr/lib/gcc/x86_64-linux-gnu/7/include/avxintrin.h:728:   return (__m256d) __builtin_ia32_vbroadcastsd256 (__X);
	.file 4 "/usr/lib/gcc/x86_64-linux-gnu/7/include/avxintrin.h"
	.loc 4 728 0
	vbroadcastsd	(%rsi), %ymm0	#* ap, _28
.LVL33:
	leaq	8192(%rdx), %rcx	#, b
.LBE90:
.LBE89:
# mulmatrix.c:65:             double* cp = c;
	.loc 2 65 0
	movq	%r8, %rax	# c, cp
.LVL34:
	.p2align 4,,10
	.p2align 3
.L45:
.LBB91:
.LBB92:
.LBB93:
# /usr/lib/gcc/x86_64-linux-gnu/7/include/fmaintrin.h:49:   return (__m256d)__builtin_ia32_vfmaddpd256 ((__v4df)__A, (__v4df)__B,
	.file 5 "/usr/lib/gcc/x86_64-linux-gnu/7/include/fmaintrin.h"
	.loc 5 49 0
	vmovapd	(%rdx), %ymm1	# MEM[base: b_57, offset: 0B], tmp125
	addq	$64, %rdx	#, b
.LVL35:
	addq	$64, %rax	#, cp
.LVL36:
	vfmadd213pd	-64(%rax), %ymm0, %ymm1	# MEM[base: cp_60, offset: 0B], _28, tmp125
.LVL37:
.LBE93:
.LBE92:
.LBB94:
.LBB95:
# /usr/lib/gcc/x86_64-linux-gnu/7/include/avxintrin.h:867:   *(__m256d *)__P = __A;
	.loc 4 867 0
	vmovapd	%ymm1, -64(%rax)	# tmp125, MEM[base: cp_60, offset: 0B]
.LVL38:
.LBE95:
.LBE94:
.LBB96:
.LBB97:
# /usr/lib/gcc/x86_64-linux-gnu/7/include/fmaintrin.h:49:   return (__m256d)__builtin_ia32_vfmaddpd256 ((__v4df)__A, (__v4df)__B,
	.loc 5 49 0
	vmovapd	-32(%rdx), %ymm1	# MEM[base: b_57, offset: 32B], tmp128
	vfmadd213pd	-32(%rax), %ymm0, %ymm1	# MEM[base: cp_60, offset: 32B], _28, tmp128
.LVL39:
.LBE97:
.LBE96:
.LBB98:
.LBB99:
# /usr/lib/gcc/x86_64-linux-gnu/7/include/avxintrin.h:867:   *(__m256d *)__P = __A;
	.loc 4 867 0
	vmovapd	%ymm1, -32(%rax)	# tmp128, MEM[base: cp_60, offset: 32B]
.LVL40:
.LBE99:
.LBE98:
# mulmatrix.c:66:             for (int j = CC>>3; j > 0; j--){//идём по строке С
	.loc 2 66 0
	cmpq	%rdx, %rcx	# b, b
	jne	.L45	#,
.LBE91:
# mulmatrix.c:77:             ap++;
	.loc 2 77 0 discriminator 2
	addq	$8, %rsi	#, ap
.LVL41:
	movq	%rcx, %rdx	# b, b
.LBE88:
# mulmatrix.c:62:         for (int k = AC; k > 0; k--){//AC=BR, идём по столбцам B и элементам в строке А, k = номер столбца А/номер строки В
	.loc 2 62 0 discriminator 2
	cmpq	%rsi, %rdi	# ap, _13
	jne	.L46	#,
.LVL42:
	addq	$8192, %r9	#, ivtmp.156
.LBE87:
.LBE86:
# mulmatrix.c:57:     for (int i = 0; i < AR; i++){//идём по строкам А и С, i = номер строки в А
	.loc 2 57 0 discriminator 2
	cmpq	$8388608, %r9	#, ivtmp.156
	jne	.L47	#,
	vzeroupper
.LBE85:
# mulmatrix.c:82: }
	.loc 2 82 0
	addq	$8, %rsp	#,
	popq	%r10	#
	.cfi_def_cfa 10, 0
	popq	%rbp	#
	leaq	-8(%r10), %rsp	#,
	.cfi_def_cfa 7, 8
	ret
	.cfi_endproc
.LFE4794:
	.size	mulvec, .-mulvec
	.section	.rodata.str1.8,"aMS",@progbits,1
	.align 8
.LC4:
	.string	"\320\222\321\200\320\265\320\274\321\217 \321\200\320\260\321\201\321\201\321\207\321\221\321\202\320\260 \320\274\320\260\321\202\321\200\320\270\321\206\321\213 \320\276\320\261\321\213\321\207\320\275\321\213\320\274 \321\201\320\277\320\276\321\201\320\276\320\261\320\276\320\274: %2.5f mksec \n"
	.align 8
.LC5:
	.string	"\320\222\321\200\320\265\320\274\321\217 \321\200\320\260\321\201\321\201\321\207\321\221\321\202\320\260 \320\274\320\260\321\202\321\200\320\270\321\206\321\213 \320\241\320\242\320\240\320\236\320\247\320\235\320\253\320\234 \321\201\320\277\320\276\321\201\320\276\320\261\320\276\320\274: %2.5f mksec, %.4f  \n"
	.align 8
.LC6:
	.string	"\320\222\321\200\320\265\320\274\321\217 \321\200\320\260\321\201\321\201\321\207\321\221\321\202\320\260 \320\274\320\260\321\202\321\200\320\270\321\206\321\213 \320\222\320\225\320\232\320\242\320\236\320\240\320\235\320\253\320\234 \321\201\320\277\320\276\321\201\320\276\320\261\320\276\320\274: %2.5f mksec, %.4f \n"
	.align 8
.LC7:
	.string	"\320\240\320\265\320\267\321\203\320\273\321\214\321\202\320\270\321\200\321\203\321\216\321\211\320\270\320\265 \320\274\320\260\321\202\321\200\320\270\321\206\321\213 \320\235\320\225 \321\200\320\260\320\262\320\275\321\213!"
	.section	.text.startup,"ax",@progbits
	.p2align 4,,15
	.globl	main
	.type	main, @function
main:
.LFB4795:
	.loc 2 85 0
	.cfi_startproc
.LVL43:
	pushq	%rbp	#
	.cfi_def_cfa_offset 16
	.cfi_offset 6, -16
	pushq	%rbx	#
	.cfi_def_cfa_offset 24
	.cfi_offset 3, -24
# mulmatrix.c:90:     C3 = _mm_malloc(sizeof(double)*CR*CC,  4*(sizeof(double)));
	.loc 2 90 0
	xorl	%ebx, %ebx	# ivtmp.181
# mulmatrix.c:85: {
	.loc 2 85 0
	subq	$72, %rsp	#,
	.cfi_def_cfa_offset 96
# mulmatrix.c:85: {
	.loc 2 85 0
	movq	%fs:40, %rax	#, tmp205
	movq	%rax, 56(%rsp)	# tmp205, D.29326
	xorl	%eax, %eax	# tmp205
# mulmatrix.c:86:     A = _mm_malloc(sizeof(double)*AR*AC, 4*(sizeof(double)));
	.loc 2 86 0
	call	_mm_malloc.constprop.0	#
.LVL44:
	movq	%rax, A(%rip)	# _1, A
# mulmatrix.c:87:     B = _mm_malloc(sizeof(double)*BR*BC,  4*(sizeof(double)));
	.loc 2 87 0
	call	_mm_malloc.constprop.0	#
.LVL45:
	movq	%rax, B(%rip)	# _2, B
# mulmatrix.c:88:     C1 = _mm_malloc(sizeof(double)*CR*CC,  4*(sizeof(double)));
	.loc 2 88 0
	call	_mm_malloc.constprop.0	#
.LVL46:
	movq	%rax, C1(%rip)	# _3, C1
# mulmatrix.c:89:     C2 = _mm_malloc(sizeof(double)*CR*CC,  4*(sizeof(double)));
	.loc 2 89 0
	call	_mm_malloc.constprop.0	#
.LVL47:
	movq	%rax, C2(%rip)	# _4, C2
# mulmatrix.c:90:     C3 = _mm_malloc(sizeof(double)*CR*CC,  4*(sizeof(double)));
	.loc 2 90 0
	call	_mm_malloc.constprop.0	#
.LVL48:
	movq	%rax, C3(%rip)	# _5, C3
.LVL49:
	.p2align 4,,10
	.p2align 3
.L53:
.LBB100:
# mulmatrix.c:94:         A[i] = drand48()*5; 
	.loc 2 94 0 discriminator 3
	call	drand48@PLT	#
.LVL50:
	vmulsd	.LC1(%rip), %xmm0, %xmm0	#, _6, tmp156
	movq	A(%rip), %rax	# A, A
	vmovsd	%xmm0, (%rax,%rbx)	# tmp156, *_10
	addq	$8, %rbx	#, ivtmp.181
# mulmatrix.c:92:     for (int i = 0; i < AC*AR; i++)
	.loc 2 92 0 discriminator 3
	cmpq	$8388608, %rbx	#, ivtmp.181
	jne	.L53	#,
	xorl	%ebx, %ebx	# ivtmp.174
	.p2align 4,,10
	.p2align 3
.L54:
.LBE100:
.LBB101:
# mulmatrix.c:99:         B[i] = drand48()*5; 
	.loc 2 99 0 discriminator 3
	call	drand48@PLT	#
.LVL51:
	vmulsd	.LC1(%rip), %xmm0, %xmm0	#, _12, tmp159
	movq	B(%rip), %rax	# B, B
	vmovsd	%xmm0, (%rax,%rbx)	# tmp159, *_16
.LVL52:
	addq	$8, %rbx	#, ivtmp.174
# mulmatrix.c:97:     for (int i = 0; i <BC*BR; i++)
	.loc 2 97 0 discriminator 3
	cmpq	$8388608, %rbx	#, ivtmp.174
	jne	.L54	#,
.LBE101:
# mulmatrix.c:105:     clock_gettime(CLOCK_THREAD_CPUTIME_ID, &t0);
	.loc 2 105 0
	leaq	16(%rsp), %rbp	#, tmp161
# mulmatrix.c:109:     clock_gettime(CLOCK_THREAD_CPUTIME_ID, &t1);
	.loc 2 109 0
	leaq	32(%rsp), %rbx	#, tmp162
# mulmatrix.c:105:     clock_gettime(CLOCK_THREAD_CPUTIME_ID, &t0);
	.loc 2 105 0
	movl	$3, %edi	#,
	movq	%rbp, %rsi	# tmp161,
	call	clock_gettime@PLT	#
.LVL53:
# mulmatrix.c:109:     clock_gettime(CLOCK_THREAD_CPUTIME_ID, &t1);
	.loc 2 109 0
	movq	%rbx, %rsi	# tmp162,
	movl	$3, %edi	#,
	call	clock_gettime@PLT	#
.LVL54:
# mulmatrix.c:111:     tres1 = ((double)(t1.tv_sec - t0.tv_sec)*10e9 + (double)(t1.tv_nsec - t0.tv_nsec))/10e6;
	.loc 2 111 0
	movq	32(%rsp), %rax	# t1.tv_sec, t1.tv_sec
	subq	16(%rsp), %rax	# t0.tv_sec, tmp163
.LBB102:
.LBB103:
# /usr/include/x86_64-linux-gnu/bits/stdio2.h:104:   return __printf_chk (__USE_FORTIFY_LEVEL - 1, __fmt, __va_arg_pack ());
	.file 6 "/usr/include/x86_64-linux-gnu/bits/stdio2.h"
	.loc 6 104 0
	leaq	.LC4(%rip), %rsi	#,
.LBE103:
.LBE102:
# mulmatrix.c:111:     tres1 = ((double)(t1.tv_sec - t0.tv_sec)*10e9 + (double)(t1.tv_nsec - t0.tv_nsec))/10e6;
	.loc 2 111 0
	vxorpd	%xmm1, %xmm1, %xmm1	# tmp165
.LBB106:
.LBB104:
# /usr/include/x86_64-linux-gnu/bits/stdio2.h:104:   return __printf_chk (__USE_FORTIFY_LEVEL - 1, __fmt, __va_arg_pack ());
	.loc 6 104 0
	movl	$1, %edi	#,
.LBE104:
.LBE106:
# mulmatrix.c:111:     tres1 = ((double)(t1.tv_sec - t0.tv_sec)*10e9 + (double)(t1.tv_nsec - t0.tv_nsec))/10e6;
	.loc 2 111 0
	vxorpd	%xmm0, %xmm0, %xmm0	# tmp168
	vcvtsi2sdq	%rax, %xmm1, %xmm1	# tmp163, tmp165, tmp165
	movq	40(%rsp), %rax	# t1.tv_nsec, t1.tv_nsec
	subq	24(%rsp), %rax	# t0.tv_nsec, tmp166
	vcvtsi2sdq	%rax, %xmm0, %xmm0	# tmp166, tmp168, tmp168
	vfmadd132sd	.LC2(%rip), %xmm0, %xmm1	#, tmp168, tmp169
	vdivsd	.LC3(%rip), %xmm1, %xmm1	#, tmp169, tres1
.LVL55:
.LBB107:
.LBB105:
# /usr/include/x86_64-linux-gnu/bits/stdio2.h:104:   return __printf_chk (__USE_FORTIFY_LEVEL - 1, __fmt, __va_arg_pack ());
	.loc 6 104 0
	movl	$1, %eax	#,
	vmovapd	%xmm1, %xmm0	# tres1,
	vmovsd	%xmm1, 8(%rsp)	# tres1, %sfp
	call	__printf_chk@PLT	#
.LVL56:
.LBE105:
.LBE107:
# mulmatrix.c:114:     clock_gettime(CLOCK_THREAD_CPUTIME_ID, &t0);
	.loc 2 114 0
	movq	%rbp, %rsi	# tmp161,
	movl	$3, %edi	#,
	call	clock_gettime@PLT	#
.LVL57:
# mulmatrix.c:116:     mulstr();
	.loc 2 116 0
	call	mulstr	#
.LVL58:
# mulmatrix.c:118:     clock_gettime(CLOCK_THREAD_CPUTIME_ID, &t1);
	.loc 2 118 0
	movq	%rbx, %rsi	# tmp162,
	movl	$3, %edi	#,
	call	clock_gettime@PLT	#
.LVL59:
# mulmatrix.c:120:     tres2 = ((double)(t1.tv_sec - t0.tv_sec)*10e9 + (double)(t1.tv_nsec - t0.tv_nsec))/10e6;
	.loc 2 120 0
	movq	32(%rsp), %rax	# t1.tv_sec, t1.tv_sec
	subq	16(%rsp), %rax	# t0.tv_sec, tmp174
.LBB108:
.LBB109:
# /usr/include/x86_64-linux-gnu/bits/stdio2.h:104:   return __printf_chk (__USE_FORTIFY_LEVEL - 1, __fmt, __va_arg_pack ());
	.loc 6 104 0
	leaq	.LC5(%rip), %rsi	#,
.LBE109:
.LBE108:
# mulmatrix.c:120:     tres2 = ((double)(t1.tv_sec - t0.tv_sec)*10e9 + (double)(t1.tv_nsec - t0.tv_nsec))/10e6;
	.loc 2 120 0
	vxorpd	%xmm2, %xmm2, %xmm2	# tmp176
.LBB113:
.LBB110:
# /usr/include/x86_64-linux-gnu/bits/stdio2.h:104:   return __printf_chk (__USE_FORTIFY_LEVEL - 1, __fmt, __va_arg_pack ());
	.loc 6 104 0
	movl	$1, %edi	#,
.LBE110:
.LBE113:
# mulmatrix.c:120:     tres2 = ((double)(t1.tv_sec - t0.tv_sec)*10e9 + (double)(t1.tv_nsec - t0.tv_nsec))/10e6;
	.loc 2 120 0
	vxorpd	%xmm0, %xmm0, %xmm0	# tmp179
.LBB114:
.LBB111:
# /usr/include/x86_64-linux-gnu/bits/stdio2.h:104:   return __printf_chk (__USE_FORTIFY_LEVEL - 1, __fmt, __va_arg_pack ());
	.loc 6 104 0
	vmovsd	8(%rsp), %xmm1	# %sfp, tres1
.LBE111:
.LBE114:
# mulmatrix.c:120:     tres2 = ((double)(t1.tv_sec - t0.tv_sec)*10e9 + (double)(t1.tv_nsec - t0.tv_nsec))/10e6;
	.loc 2 120 0
	vcvtsi2sdq	%rax, %xmm2, %xmm2	# tmp174, tmp176, tmp176
	movq	40(%rsp), %rax	# t1.tv_nsec, t1.tv_nsec
	subq	24(%rsp), %rax	# t0.tv_nsec, tmp177
	vcvtsi2sdq	%rax, %xmm0, %xmm0	# tmp177, tmp179, tmp179
	vfmadd132sd	.LC2(%rip), %xmm0, %xmm2	#, tmp179, tmp180
	vdivsd	.LC3(%rip), %xmm2, %xmm2	#, tmp180, tres2
.LVL60:
.LBB115:
.LBB112:
# /usr/include/x86_64-linux-gnu/bits/stdio2.h:104:   return __printf_chk (__USE_FORTIFY_LEVEL - 1, __fmt, __va_arg_pack ());
	.loc 6 104 0
	movl	$2, %eax	#,
	vdivsd	%xmm2, %xmm1, %xmm1	# tres2, tres1,
	vmovapd	%xmm2, %xmm0	# tres2,
	vmovsd	%xmm2, 8(%rsp)	# tres2, %sfp
.LVL61:
	call	__printf_chk@PLT	#
.LVL62:
.LBE112:
.LBE115:
# mulmatrix.c:123:     clock_gettime(CLOCK_THREAD_CPUTIME_ID, &t0);
	.loc 2 123 0
	movq	%rbp, %rsi	# tmp161,
	movl	$3, %edi	#,
	call	clock_gettime@PLT	#
.LVL63:
# mulmatrix.c:125:     mulvec();
	.loc 2 125 0
	call	mulvec	#
.LVL64:
# mulmatrix.c:127:     clock_gettime(CLOCK_THREAD_CPUTIME_ID, &t1);
	.loc 2 127 0
	movq	%rbx, %rsi	# tmp162,
	movl	$3, %edi	#,
	call	clock_gettime@PLT	#
.LVL65:
# mulmatrix.c:129:     tres3 = ((double)(t1.tv_sec - t0.tv_sec)*10e9 + (double)(t1.tv_nsec - t0.tv_nsec))/10e6;
	.loc 2 129 0
	movq	32(%rsp), %rax	# t1.tv_sec, t1.tv_sec
	subq	16(%rsp), %rax	# t0.tv_sec, tmp186
.LBB116:
.LBB117:
# /usr/include/x86_64-linux-gnu/bits/stdio2.h:104:   return __printf_chk (__USE_FORTIFY_LEVEL - 1, __fmt, __va_arg_pack ());
	.loc 6 104 0
	leaq	.LC6(%rip), %rsi	#,
.LBE117:
.LBE116:
# mulmatrix.c:129:     tres3 = ((double)(t1.tv_sec - t0.tv_sec)*10e9 + (double)(t1.tv_nsec - t0.tv_nsec))/10e6;
	.loc 2 129 0
	vxorpd	%xmm0, %xmm0, %xmm0	# tmp188
.LBB121:
.LBB118:
# /usr/include/x86_64-linux-gnu/bits/stdio2.h:104:   return __printf_chk (__USE_FORTIFY_LEVEL - 1, __fmt, __va_arg_pack ());
	.loc 6 104 0
	movl	$1, %edi	#,
.LBE118:
.LBE121:
# mulmatrix.c:129:     tres3 = ((double)(t1.tv_sec - t0.tv_sec)*10e9 + (double)(t1.tv_nsec - t0.tv_nsec))/10e6;
	.loc 2 129 0
	vxorpd	%xmm1, %xmm1, %xmm1	# tmp191
.LBB122:
.LBB119:
# /usr/include/x86_64-linux-gnu/bits/stdio2.h:104:   return __printf_chk (__USE_FORTIFY_LEVEL - 1, __fmt, __va_arg_pack ());
	.loc 6 104 0
	vmovsd	8(%rsp), %xmm2	# %sfp, tres2
.LBE119:
.LBE122:
# mulmatrix.c:129:     tres3 = ((double)(t1.tv_sec - t0.tv_sec)*10e9 + (double)(t1.tv_nsec - t0.tv_nsec))/10e6;
	.loc 2 129 0
	vcvtsi2sdq	%rax, %xmm0, %xmm0	# tmp186, tmp188, tmp188
	movq	40(%rsp), %rax	# t1.tv_nsec, t1.tv_nsec
	subq	24(%rsp), %rax	# t0.tv_nsec, tmp189
	vcvtsi2sdq	%rax, %xmm1, %xmm1	# tmp189, tmp191, tmp191
	vfmadd132sd	.LC2(%rip), %xmm1, %xmm0	#, tmp191, tmp192
	vdivsd	.LC3(%rip), %xmm0, %xmm0	#, tmp192, tres3
.LVL66:
.LBB123:
.LBB120:
# /usr/include/x86_64-linux-gnu/bits/stdio2.h:104:   return __printf_chk (__USE_FORTIFY_LEVEL - 1, __fmt, __va_arg_pack ());
	.loc 6 104 0
	movl	$2, %eax	#,
	vdivsd	%xmm0, %xmm2, %xmm1	# tres3, tres2,
	call	__printf_chk@PLT	#
.LVL67:
.LBE120:
.LBE123:
.LBB124:
# mulmatrix.c:133:             if(C2[i]!=C3[i]) {printf("Результирующие матрицы НЕ равны!\n"); break;}
	.loc 2 133 0
	movq	C2(%rip), %rcx	# C2, C2.13_50
	movq	C3(%rip), %rdx	# C3, C3.14_55
	xorl	%eax, %eax	# ivtmp.167
	jmp	.L58	#
.LVL68:
	.p2align 4,,10
	.p2align 3
.L64:
	addq	$8, %rax	#, ivtmp.167
# mulmatrix.c:132:     for (int i = 0; i < CR*CC; i++)
	.loc 2 132 0 discriminator 2
	cmpq	$8388608, %rax	#, ivtmp.167
	je	.L57	#,
.L58:
# mulmatrix.c:133:             if(C2[i]!=C3[i]) {printf("Результирующие матрицы НЕ равны!\n"); break;}
	.loc 2 133 0
	vmovsd	(%rcx,%rax), %xmm0	# MEM[base: C2.13_50, index: ivtmp.167_115, offset: 0B], MEM[base: C2.13_50, index: ivtmp.167_115, offset: 0B]
	vucomisd	(%rdx,%rax), %xmm0	# MEM[base: C3.14_55, index: ivtmp.167_115, offset: 0B], MEM[base: C2.13_50, index: ivtmp.167_115, offset: 0B]
	jp	.L60	#,
	je	.L64	#,
.L60:
.LVL69:
.LBB125:
.LBB126:
# /usr/include/x86_64-linux-gnu/bits/stdio2.h:104:   return __printf_chk (__USE_FORTIFY_LEVEL - 1, __fmt, __va_arg_pack ());
	.loc 6 104 0
	leaq	.LC7(%rip), %rdi	#,
	call	puts@PLT	#
.LVL70:
.L57:
.LBE126:
.LBE125:
.LBE124:
.LBB127:
.LBB128:
# /usr/lib/gcc/x86_64-linux-gnu/7/include/mm_malloc.h:54:   free (__ptr);
	.loc 1 54 0
	movq	A(%rip), %rdi	# A,
	call	free@PLT	#
.LVL71:
.LBE128:
.LBE127:
.LBB129:
.LBB130:
	movq	B(%rip), %rdi	# B,
	call	free@PLT	#
.LVL72:
.LBE130:
.LBE129:
.LBB131:
.LBB132:
	movq	C1(%rip), %rdi	# C1,
	call	free@PLT	#
.LVL73:
.LBE132:
.LBE131:
.LBB133:
.LBB134:
	movq	C2(%rip), %rdi	# C2,
	call	free@PLT	#
.LVL74:
.LBE134:
.LBE133:
.LBB135:
.LBB136:
	movq	C3(%rip), %rdi	# C3,
	call	free@PLT	#
.LVL75:
.LBE136:
.LBE135:
# mulmatrix.c:143: }
	.loc 2 143 0
	xorl	%eax, %eax	#
	movq	56(%rsp), %rsi	# D.29326, tmp206
	xorq	%fs:40, %rsi	#, tmp206
	jne	.L67	#,
	addq	$72, %rsp	#,
	.cfi_remember_state
	.cfi_def_cfa_offset 24
	popq	%rbx	#
	.cfi_def_cfa_offset 16
	popq	%rbp	#
	.cfi_def_cfa_offset 8
	ret
.L67:
	.cfi_restore_state
	call	__stack_chk_fail@PLT	#
.LVL76:
	.cfi_endproc
.LFE4795:
	.size	main, .-main
	.comm	C3,8,8
	.comm	C2,8,8
	.comm	C1,8,8
	.comm	B,8,8
	.comm	A,8,8
	.section	.rodata.cst8,"aM",@progbits,8
	.align 8
.LC1:
	.long	0
	.long	1075052544
	.align 8
.LC2:
	.long	536870912
	.long	1107468383
	.align 8
.LC3:
	.long	0
	.long	1097011920
	.text
.Letext0:
	.file 7 "/usr/lib/gcc/x86_64-linux-gnu/7/include/stddef.h"
	.file 8 "/usr/include/x86_64-linux-gnu/bits/types.h"
	.file 9 "/usr/include/x86_64-linux-gnu/bits/libio.h"
	.file 10 "/usr/include/stdio.h"
	.file 11 "/usr/include/x86_64-linux-gnu/bits/sys_errlist.h"
	.file 12 "/usr/include/x86_64-linux-gnu/bits/types/struct_timespec.h"
	.file 13 "/usr/include/time.h"
	.file 14 "/usr/include/malloc.h"
	.file 15 "/usr/include/stdlib.h"
	.file 16 "<built-in>"
	.section	.note.GNU-stack,"",@progbits
